target datalayout = "e-m:e-p270:32:32-p271:32:32-p272:64:64-i64:64-i128:128-f80:128-n8:16:32:64-S128"
target triple = "x86_64-pc-linux-gnu"

%struct.AVProbeData = type { ptr, ptr, i32, ptr }

; Function Attrs: nounwind uwtable
define internal i32 @ac4_probe(ptr noundef %0) #0 {
  %2 = alloca ptr, align 8
  %3 = alloca ptr, align 8
  %4 = alloca i32, align 4
  %5 = alloca i32, align 4
  %6 = alloca i32, align 4
  %7 = alloca i32, align 4
  store ptr %0, ptr %2, align 8, !tbaa !4
  call void @llvm.lifetime.start.p0(i64 8, ptr %3) #4
  %8 = load ptr, ptr %2, align 8, !tbaa !4
  %9 = getelementptr inbounds nuw %struct.AVProbeData, ptr %8, i32 0, i32 1
  %10 = load ptr, ptr %9, align 8, !tbaa !9
  store ptr %10, ptr %3, align 8, !tbaa !13
  call void @llvm.lifetime.start.p0(i64 4, ptr %4) #4
  %11 = load ptr, ptr %2, align 8, !tbaa !4
  %12 = getelementptr inbounds nuw %struct.AVProbeData, ptr %11, i32 0, i32 2
  %13 = load i32, ptr %12, align 8, !tbaa !14
  store i32 %13, ptr %4, align 4, !tbaa !15
  call void @llvm.lifetime.start.p0(i64 4, ptr %5) #4
  store i32 0, ptr %5, align 4, !tbaa !15
  br label %14

14:                                               ; preds = %96, %1
  %15 = load i32, ptr %4, align 4, !tbaa !15
  %16 = icmp sgt i32 %15, 7
  br i1 %16, label %17, label %97

17:                                               ; preds = %14
  call void @llvm.lifetime.start.p0(i64 4, ptr %6) #4
  %18 = load ptr, ptr %3, align 8, !tbaa !13
  %19 = getelementptr inbounds i8, ptr %18, i64 0
  %20 = load i8, ptr %19, align 1, !tbaa !16
  %21 = zext i8 %20 to i32
  %22 = icmp eq i32 %21, 172
  br i1 %22, label %23, label %92

23:                                               ; preds = %17
  %24 = load ptr, ptr %3, align 8, !tbaa !13
  %25 = getelementptr inbounds i8, ptr %24, i64 1
  %26 = load i8, ptr %25, align 1, !tbaa !16
  %27 = zext i8 %26 to i32
  %28 = icmp eq i32 %27, 64
  br i1 %28, label %35, label %29

29:                                               ; preds = %23
  %30 = load ptr, ptr %3, align 8, !tbaa !13
  %31 = getelementptr inbounds i8, ptr %30, i64 1
  %32 = load i8, ptr %31, align 1, !tbaa !16
  %33 = zext i8 %32 to i32
  %34 = icmp eq i32 %33, 65
  br i1 %34, label %35, label %92

35:                                               ; preds = %29, %23
  %36 = load ptr, ptr %3, align 8, !tbaa !13
  %37 = getelementptr inbounds i8, ptr %36, i64 2
  %38 = load i8, ptr %37, align 1, !tbaa !16
  %39 = zext i8 %38 to i32
  %40 = shl i32 %39, 8
  %41 = load ptr, ptr %3, align 8, !tbaa !13
  %42 = getelementptr inbounds i8, ptr %41, i64 3
  %43 = load i8, ptr %42, align 1, !tbaa !16
  %44 = zext i8 %43 to i32
  %45 = or i32 %40, %44
  store i32 %45, ptr %6, align 4, !tbaa !15
  %46 = load i32, ptr %6, align 4, !tbaa !15
  %47 = icmp eq i32 %46, 65535
  br i1 %47, label %48, label %66

48:                                               ; preds = %35
  %49 = load ptr, ptr %3, align 8, !tbaa !13
  %50 = getelementptr inbounds i8, ptr %49, i64 4
  %51 = load i8, ptr %50, align 1, !tbaa !16
  %52 = zext i8 %51 to i32
  %53 = shl i32 %52, 16
  %54 = load ptr, ptr %3, align 8, !tbaa !13
  %55 = getelementptr inbounds i8, ptr %54, i64 5
  %56 = load i8, ptr %55, align 1, !tbaa !16
  %57 = zext i8 %56 to i32
  %58 = shl i32 %57, 8
  %59 = or i32 %53, %58
  %60 = load ptr, ptr %3, align 8, !tbaa !13
  %61 = getelementptr inbounds i8, ptr %60, i64 6
  %62 = load i8, ptr %61, align 1, !tbaa !16
  %63 = zext i8 %62 to i32
  %64 = or i32 %59, %63
  %65 = add nsw i32 3, %64
  store i32 %65, ptr %6, align 4, !tbaa !15
  br label %66

66:                                               ; preds = %48, %35
  %67 = load i32, ptr %6, align 4, !tbaa !15
  %68 = add nsw i32 %67, 4
  store i32 %68, ptr %6, align 4, !tbaa !15
  %69 = load ptr, ptr %3, align 8, !tbaa !13
  %70 = getelementptr inbounds i8, ptr %69, i64 1
  %71 = load i8, ptr %70, align 1, !tbaa !16
  %72 = zext i8 %71 to i32
  %73 = icmp eq i32 %72, 65
  br i1 %73, label %74, label %77

74:                                               ; preds = %66
  %75 = load i32, ptr %6, align 4, !tbaa !15
  %76 = add nsw i32 %75, 2
  store i32 %76, ptr %6, align 4, !tbaa !15
  br label %77

77:                                               ; preds = %74, %66
  %78 = load i32, ptr %4, align 4, !tbaa !15
  %79 = load i32, ptr %6, align 4, !tbaa !15
  %80 = icmp slt i32 %78, %79
  br i1 %80, label %81, label %82

81:                                               ; preds = %77
  store i32 3, ptr %7, align 4
  br label %94

82:                                               ; preds = %77
  %83 = load i32, ptr %5, align 4, !tbaa !15
  %84 = add nsw i32 %83, 1
  store i32 %84, ptr %5, align 4, !tbaa !15
  %85 = load i32, ptr %6, align 4, !tbaa !15
  %86 = load i32, ptr %4, align 4, !tbaa !15
  %87 = sub nsw i32 %86, %85
  store i32 %87, ptr %4, align 4, !tbaa !15
  %88 = load i32, ptr %6, align 4, !tbaa !15
  %89 = load ptr, ptr %3, align 8, !tbaa !13
  %90 = sext i32 %88 to i64
  %91 = getelementptr inbounds i8, ptr %89, i64 %90
  store ptr %91, ptr %3, align 8, !tbaa !13
  br label %93

92:                                               ; preds = %29, %17
  store i32 3, ptr %7, align 4
  br label %94

93:                                               ; preds = %82
  store i32 0, ptr %7, align 4
  br label %94

94:                                               ; preds = %93, %92, %81
  call void @llvm.lifetime.end.p0(i64 4, ptr %6) #4
  %95 = load i32, ptr %7, align 4
  switch i32 %95, label %107 [
    i32 0, label %96
    i32 3, label %97
  ]

96:                                               ; preds = %94
  br label %14, !llvm.loop !17

97:                                               ; preds = %94, %14
  %98 = load i32, ptr %5, align 4, !tbaa !15
  %99 = mul nsw i32 %98, 7
  %100 = icmp sgt i32 100, %99
  br i1 %100, label %101, label %104

101:                                              ; preds = %97
  %102 = load i32, ptr %5, align 4, !tbaa !15
  %103 = mul nsw i32 %102, 7
  br label %105

104:                                              ; preds = %97
  br label %105

105:                                              ; preds = %104, %101
  %106 = phi i32 [ %103, %101 ], [ 100, %104 ]
  store i32 1, ptr %7, align 4
  call void @llvm.lifetime.end.p0(i64 4, ptr %5) #4
  call void @llvm.lifetime.end.p0(i64 4, ptr %4) #4
  call void @llvm.lifetime.end.p0(i64 8, ptr %3) #4
  ret i32 %106

107:                                              ; preds = %94
  unreachable
}